; Function Attrs: nofree norecurse nosync nounwind memory(readwrite, inaccessiblemem: none) uwtable
define internal void @ff_tx_fft8192_ns_int32_c(ptr readnone captures(none) %0, ptr noundef initializes((0, 128)) %1, ptr noundef readonly captures(none) %2, i64 %3) #10 {
  tail call void @ff_tx_fft4096_ns_int32_c(ptr poison, ptr noundef %1, ptr noundef %2, i64 poison)
  %5 = getelementptr inbounds nuw i8, ptr %1, i64 32768
  %6 = getelementptr inbounds nuw i8, ptr %2, i64 32768
  tail call void @ff_tx_fft2048_ns_int32_c(ptr poison, ptr noundef nonnull %5, ptr noundef nonnull %6, i64 poison)
  %7 = getelementptr inbounds nuw i8, ptr %1, i64 49152
  %8 = getelementptr inbounds nuw i8, ptr %2, i64 49152
  tail call void @ff_tx_fft2048_ns_int32_c(ptr poison, ptr noundef nonnull %7, ptr noundef nonnull %8, i64 poison)
  tail call fastcc void @ff_tx_fft_sr_combine_int32_c(ptr noundef %1, ptr noundef nonnull @ff_tx_tab_8192_int32, i32 noundef 1024)
  ret void
}